target datalayout = "e-m:e-p270:32:32-p271:32:32-p272:64:64-i64:64-i128:128-f80:128-n8:16:32:64-S128"
target triple = "x86_64-pc-linux-gnu"

; Function Attrs: nounwind sspstrong uwtable
define internal i32 @char_to_option(i32 noundef %0) #0 {
  %2 = alloca i32, align 4
  %3 = alloca i32, align 4
  store i32 %0, ptr %2, align 4, !tbaa !16
  call void @llvm.lifetime.start.p0(i64 4, ptr %3) #28
  %4 = load i32, ptr %2, align 4, !tbaa !16
  switch i32 %4, label %8 [
    i32 105, label %5
    i32 120, label %6
    i32 109, label %7
  ]

5:                                                ; preds = %1
  store i32 1, ptr %3, align 4, !tbaa !16
  br label %9

6:                                                ; preds = %1
  store i32 2, ptr %3, align 4, !tbaa !16
  br label %9

7:                                                ; preds = %1
  store i32 4, ptr %3, align 4, !tbaa !16
  br label %9

8:                                                ; preds = %1
  store i32 0, ptr %3, align 4, !tbaa !16
  br label %9

9:                                                ; preds = %8, %7, %6, %5
  %10 = load i32, ptr %3, align 4, !tbaa !16
  call void @llvm.lifetime.end.p0(i64 4, ptr %3) #28
  ret i32 %10
}

; Function Attrs: nounwind sspstrong memory(argmem: readwrite, inaccessiblemem: readwrite) uwtable
define dso_local i32 @rb_char_to_option_kcode(i32 noundef %0, ptr noundef %1, ptr noundef %2) #6 {
  %4 = alloca i32, align 4
  %5 = alloca i32, align 4
  %6 = alloca ptr, align 8
  %7 = alloca ptr, align 8
  store i32 %0, ptr %5, align 4, !tbaa !16
  store ptr %1, ptr %6, align 8, !tbaa !30
  store ptr %2, ptr %7, align 8, !tbaa !30
  %8 = load ptr, ptr %6, align 8, !tbaa !30
  store i32 0, ptr %8, align 4, !tbaa !16
  %9 = load i32, ptr %5, align 4, !tbaa !16
  switch i32 %9, label %19 [
    i32 110, label %10
    i32 101, label %13
    i32 115, label %15
    i32 117, label %17
  ]

10:                                               ; preds = %3
  %11 = load ptr, ptr %7, align 8, !tbaa !30
  store i32 0, ptr %11, align 4, !tbaa !16
  %12 = load ptr, ptr %6, align 8, !tbaa !30
  store i32 32, ptr %12, align 4, !tbaa !16
  store i32 32, ptr %4, align 4
  br label %26

13:                                               ; preds = %3
  %14 = load ptr, ptr %7, align 8, !tbaa !30
  store i32 10, ptr %14, align 4, !tbaa !16
  br label %24

15:                                               ; preds = %3
  %16 = load ptr, ptr %7, align 8, !tbaa !30
  store i32 11, ptr %16, align 4, !tbaa !16
  br label %24

17:                                               ; preds = %3
  %18 = load ptr, ptr %7, align 8, !tbaa !30
  store i32 1, ptr %18, align 4, !tbaa !16
  br label %24

19:                                               ; preds = %3
  %20 = load ptr, ptr %7, align 8, !tbaa !30
  store i32 -1, ptr %20, align 4, !tbaa !16
  %21 = load i32, ptr %5, align 4, !tbaa !16
  %22 = call i32 @char_to_option(i32 noundef %21)
  %23 = load ptr, ptr %6, align 8, !tbaa !30
  store i32 %22, ptr %23, align 4, !tbaa !16
  store i32 %22, ptr %4, align 4
  br label %26

24:                                               ; preds = %17, %15, %13
  %25 = load ptr, ptr %6, align 8, !tbaa !30
  store i32 16, ptr %25, align 4, !tbaa !16
  store i32 1, ptr %4, align 4
  br label %26

26:                                               ; preds = %24, %19, %10
  %27 = load i32, ptr %4, align 4
  ret i32 %27
}