; Function Attrs: mustprogress nofree norecurse nosync nounwind sspstrong willreturn memory(argmem: write) uwtable
define dso_local range(i32 0, 33) i32 @rb_char_to_option_kcode(i32 noundef %0, ptr noundef writeonly captures(none) initializes((0, 4)) %1, ptr noundef writeonly captures(none) initializes((0, 4)) %2) local_unnamed_addr #6 {
  switch i32 %0, label %7 [
    i32 110, label %4
    i32 101, label %11
    i32 115, label %5
    i32 117, label %6
  ]

4:                                                ; preds = %3
  store i32 0, ptr %2, align 4, !tbaa !27
  br label %char_to_option.exit

5:                                                ; preds = %3
  br label %11

6:                                                ; preds = %3
  br label %11

7:                                                ; preds = %3
  store i32 -1, ptr %2, align 4, !tbaa !27
  switch i32 %0, label %10 [
    i32 105, label %char_to_option.exit
    i32 120, label %8
    i32 109, label %9
  ]

8:                                                ; preds = %7
  br label %char_to_option.exit

9:                                                ; preds = %7
  br label %char_to_option.exit

10:                                               ; preds = %7
  br label %char_to_option.exit

11:                                               ; preds = %3, %6, %5
  %.sink = phi i32 [ 1, %6 ], [ 11, %5 ], [ 10, %3 ]
  store i32 %.sink, ptr %2, align 4, !tbaa !27
  br label %char_to_option.exit

char_to_option.exit:                              ; preds = %10, %9, %8, %7, %11, %4
  %.sink11 = phi i32 [ 16, %11 ], [ 32, %4 ], [ 0, %10 ], [ 4, %9 ], [ 2, %8 ], [ 1, %7 ]
  %.0 = phi i32 [ 1, %11 ], [ 32, %4 ], [ 0, %10 ], [ 4, %9 ], [ 2, %8 ], [ 1, %7 ]
  store i32 %.sink11, ptr %1, align 4, !tbaa !27
  ret i32 %.0
}